target datalayout = "e-m:e-p270:32:32-p271:32:32-p272:64:64-i64:64-i128:128-f80:128-n8:16:32:64-S128"
target triple = "x86_64-pc-linux-gnu"

%struct._apdu_info_t = type { i16, i32, i32, ptr }
%struct._bitmap_info_t = type { i8, i16, ptr }
%struct._tlv_info_t = type { i32, ptr }

@proto_register_zvt.ett = internal global [7 x ptr] [ptr @ett_zvt, ptr @ett_zvt_apdu, ptr @ett_zvt_bitmap, ptr @ett_zvt_tlv_dat_obj, ptr @ett_zvt_tlv_subseq, ptr @ett_zvt_tlv_tag, ptr @ett_zvt_tlv_receipt], align 16
@apdu_table = internal global ptr null, align 8
@bitmap_table = internal global ptr null, align 8
@tlv_table = internal global ptr null, align 8
@.str.98 = private unnamed_addr constant [24 x i8] c"ZVT Kassenschnittstelle\00", align 1
@.str.99 = private unnamed_addr constant [4 x i8] c"ZVT\00", align 1
@.str.100 = private unnamed_addr constant [4 x i8] c"zvt\00", align 1
@proto_zvt = internal global i32 0, align 4
@transactions = internal global ptr null, align 8
@.str.101 = private unnamed_addr constant [8 x i8] c"zvt.tcp\00", align 1
@zvt_tcp_handle = internal global ptr null, align 8

; Function Attrs: null_pointer_is_valid sspstrong uwtable
define hidden void @proto_register_zvt() #0 {
  %1 = alloca i32, align 4
  %2 = alloca ptr, align 8
  call void @llvm.lifetime.start.p0(i64 4, ptr %1) #7
  call void @llvm.lifetime.start.p0(i64 8, ptr %2) #7
  %3 = call ptr @g_hash_table_new(ptr noundef @g_direct_hash, ptr noundef @g_direct_equal)
  store ptr %3, ptr @apdu_table, align 8
  store i32 0, ptr %1, align 4
  br label %4

4:                                                ; preds = %22, %0
  %5 = load i32, ptr %1, align 4
  %6 = zext i32 %5 to i64
  %7 = icmp ult i64 %6, 13
  br i1 %7, label %8, label %25

8:                                                ; preds = %4
  %9 = load ptr, ptr @apdu_table, align 8
  %10 = load i32, ptr %1, align 4
  %11 = zext i32 %10 to i64
  %12 = getelementptr [13 x %struct._apdu_info_t], ptr @apdu_info, i64 0, i64 %11
  %13 = getelementptr inbounds nuw %struct._apdu_info_t, ptr %12, i32 0, i32 0
  %14 = load i16, ptr %13, align 8
  %15 = zext i16 %14 to i32
  %16 = zext i32 %15 to i64
  %17 = inttoptr i64 %16 to ptr
  %18 = load i32, ptr %1, align 4
  %19 = zext i32 %18 to i64
  %20 = getelementptr [13 x %struct._apdu_info_t], ptr @apdu_info, i64 0, i64 %19
  %21 = call i32 @g_hash_table_insert(ptr noundef %9, ptr noundef %17, ptr noundef %20)
  br label %22

22:                                               ; preds = %8
  %23 = load i32, ptr %1, align 4
  %24 = add i32 %23, 1
  store i32 %24, ptr %1, align 4
  br label %4, !llvm.loop !6

25:                                               ; preds = %4
  %26 = call ptr @g_hash_table_new(ptr noundef @g_direct_hash, ptr noundef @g_direct_equal)
  store ptr %26, ptr @bitmap_table, align 8
  store i32 0, ptr %1, align 4
  br label %27

27:                                               ; preds = %45, %25
  %28 = load i32, ptr %1, align 4
  %29 = zext i32 %28 to i64
  %30 = icmp ult i64 %29, 26
  br i1 %30, label %31, label %48

31:                                               ; preds = %27
  %32 = load ptr, ptr @bitmap_table, align 8
  %33 = load i32, ptr %1, align 4
  %34 = zext i32 %33 to i64
  %35 = getelementptr [26 x %struct._bitmap_info_t], ptr @bitmap_info, i64 0, i64 %34
  %36 = getelementptr inbounds nuw %struct._bitmap_info_t, ptr %35, i32 0, i32 0
  %37 = load i8, ptr %36, align 16
  %38 = zext i8 %37 to i32
  %39 = zext i32 %38 to i64
  %40 = inttoptr i64 %39 to ptr
  %41 = load i32, ptr %1, align 4
  %42 = zext i32 %41 to i64
  %43 = getelementptr [26 x %struct._bitmap_info_t], ptr @bitmap_info, i64 0, i64 %42
  %44 = call i32 @g_hash_table_insert(ptr noundef %32, ptr noundef %40, ptr noundef %43)
  br label %45

45:                                               ; preds = %31
  %46 = load i32, ptr %1, align 4
  %47 = add i32 %46, 1
  store i32 %47, ptr %1, align 4
  br label %27, !llvm.loop !8

48:                                               ; preds = %27
  %49 = call ptr @g_hash_table_new(ptr noundef @g_direct_hash, ptr noundef @g_direct_equal)
  store ptr %49, ptr @tlv_table, align 8
  store i32 0, ptr %1, align 4
  br label %50

50:                                               ; preds = %67, %48
  %51 = load i32, ptr %1, align 4
  %52 = zext i32 %51 to i64
  %53 = icmp ult i64 %52, 10
  br i1 %53, label %54, label %70

54:                                               ; preds = %50
  %55 = load ptr, ptr @tlv_table, align 8
  %56 = load i32, ptr %1, align 4
  %57 = zext i32 %56 to i64
  %58 = getelementptr [10 x %struct._tlv_info_t], ptr @tlv_info, i64 0, i64 %57
  %59 = getelementptr inbounds nuw %struct._tlv_info_t, ptr %58, i32 0, i32 0
  %60 = load i32, ptr %59, align 16
  %61 = zext i32 %60 to i64
  %62 = inttoptr i64 %61 to ptr
  %63 = load i32, ptr %1, align 4
  %64 = zext i32 %63 to i64
  %65 = getelementptr [10 x %struct._tlv_info_t], ptr @tlv_info, i64 0, i64 %64
  %66 = call i32 @g_hash_table_insert(ptr noundef %55, ptr noundef %62, ptr noundef %65)
  br label %67

67:                                               ; preds = %54
  %68 = load i32, ptr %1, align 4
  %69 = add i32 %68, 1
  store i32 %69, ptr %1, align 4
  br label %50, !llvm.loop !9

70:                                               ; preds = %50
  %71 = call i32 @proto_register_protocol(ptr noundef @.str.98, ptr noundef @.str.99, ptr noundef @.str.100)
  store i32 %71, ptr @proto_zvt, align 4
  %72 = load i32, ptr @proto_zvt, align 4
  call void @proto_register_field_array(i32 noundef %72, ptr noundef @proto_register_zvt.hf, i32 noundef 48)
  call void @proto_register_subtree_array(ptr noundef @proto_register_zvt.ett, i32 noundef 7)
  %73 = load i32, ptr @proto_zvt, align 4
  %74 = call ptr @expert_register_protocol(i32 noundef %73)
  store ptr %74, ptr %2, align 8
  %75 = load ptr, ptr %2, align 8
  call void @expert_register_field_array(ptr noundef %75, ptr noundef @proto_register_zvt.ei, i32 noundef 1)
  %76 = call ptr @wmem_epan_scope()
  %77 = call ptr @wmem_file_scope()
  %78 = call noalias ptr @wmem_tree_new_autoreset(ptr noundef %76, ptr noundef %77)
  store ptr %78, ptr @transactions, align 8
  %79 = load i32, ptr @proto_zvt, align 4
  %80 = call ptr @register_dissector(ptr noundef @.str.100, ptr noundef @dissect_zvt, i32 noundef %79)
  %81 = load i32, ptr @proto_zvt, align 4
  %82 = call ptr @register_dissector(ptr noundef @.str.101, ptr noundef @dissect_zvt_tcp, i32 noundef %81)
  store ptr %82, ptr @zvt_tcp_handle, align 8
  call void @register_shutdown_routine(ptr noundef @zvt_shutdown)
  call void @llvm.lifetime.end.p0(i64 8, ptr %2) #7
  call void @llvm.lifetime.end.p0(i64 4, ptr %1) #7
  ret void
}