; Function Attrs: null_pointer_is_valid sspstrong uwtable
define hidden void @proto_register_zvt() local_unnamed_addr #0 {
  %1 = tail call ptr @g_hash_table_new(ptr noundef nonnull @g_direct_hash, ptr noundef nonnull @g_direct_equal)
  store ptr %1, ptr @apdu_table, align 8
  br label %2

2:                                                ; preds = %0, %2
  %indvars.iv = phi i64 [ 0, %0 ], [ %indvars.iv.next, %2 ]
  %3 = load ptr, ptr @apdu_table, align 8
  %4 = getelementptr [13 x %struct._apdu_info_t], ptr @apdu_info, i64 0, i64 %indvars.iv
  %5 = load i16, ptr %4, align 8
  %6 = zext i16 %5 to i64
  %7 = inttoptr i64 %6 to ptr
  %8 = tail call i32 @g_hash_table_insert(ptr noundef %3, ptr noundef %7, ptr noundef %4)
  %indvars.iv.next = add nuw nsw i64 %indvars.iv, 1
  %exitcond.not = icmp eq i64 %indvars.iv.next, 13
  br i1 %exitcond.not, label %9, label %2, !llvm.loop !6

9:                                                ; preds = %2
  %10 = tail call ptr @g_hash_table_new(ptr noundef nonnull @g_direct_hash, ptr noundef nonnull @g_direct_equal)
  store ptr %10, ptr @bitmap_table, align 8
  br label %11

11:                                               ; preds = %9, %11
  %indvars.iv19 = phi i64 [ 0, %9 ], [ %indvars.iv.next20, %11 ]
  %12 = load ptr, ptr @bitmap_table, align 8
  %13 = getelementptr [26 x %struct._bitmap_info_t], ptr @bitmap_info, i64 0, i64 %indvars.iv19
  %14 = load i8, ptr %13, align 16
  %15 = zext i8 %14 to i64
  %16 = inttoptr i64 %15 to ptr
  %17 = tail call i32 @g_hash_table_insert(ptr noundef %12, ptr noundef %16, ptr noundef %13)
  %indvars.iv.next20 = add nuw nsw i64 %indvars.iv19, 1
  %exitcond22.not = icmp eq i64 %indvars.iv.next20, 26
  br i1 %exitcond22.not, label %18, label %11, !llvm.loop !8

18:                                               ; preds = %11
  %19 = tail call ptr @g_hash_table_new(ptr noundef nonnull @g_direct_hash, ptr noundef nonnull @g_direct_equal)
  store ptr %19, ptr @tlv_table, align 8
  br label %20

20:                                               ; preds = %18, %20
  %indvars.iv23 = phi i64 [ 0, %18 ], [ %indvars.iv.next24, %20 ]
  %21 = load ptr, ptr @tlv_table, align 8
  %22 = getelementptr [10 x %struct._tlv_info_t], ptr @tlv_info, i64 0, i64 %indvars.iv23
  %23 = load i32, ptr %22, align 16
  %24 = zext i32 %23 to i64
  %25 = inttoptr i64 %24 to ptr
  %26 = tail call i32 @g_hash_table_insert(ptr noundef %21, ptr noundef %25, ptr noundef %22)
  %indvars.iv.next24 = add nuw nsw i64 %indvars.iv23, 1
  %exitcond26.not = icmp eq i64 %indvars.iv.next24, 10
  br i1 %exitcond26.not, label %27, label %20, !llvm.loop !9

27:                                               ; preds = %20
  %28 = tail call i32 @proto_register_protocol(ptr noundef nonnull @.str.98, ptr noundef nonnull @.str.99, ptr noundef nonnull @.str.100)
  store i32 %28, ptr @proto_zvt, align 4
  tail call void @proto_register_field_array(i32 noundef %28, ptr noundef nonnull @proto_register_zvt.hf, i32 noundef 48)
  tail call void @proto_register_subtree_array(ptr noundef nonnull @proto_register_zvt.ett, i32 noundef 7)
  %29 = load i32, ptr @proto_zvt, align 4
  %30 = tail call ptr @expert_register_protocol(i32 noundef %29)
  tail call void @expert_register_field_array(ptr noundef %30, ptr noundef nonnull @proto_register_zvt.ei, i32 noundef 1)
  %31 = tail call ptr @wmem_epan_scope()
  %32 = tail call ptr @wmem_file_scope()
  %33 = tail call noalias ptr @wmem_tree_new_autoreset(ptr noundef %31, ptr noundef %32)
  store ptr %33, ptr @transactions, align 8
  %34 = load i32, ptr @proto_zvt, align 4
  %35 = tail call ptr @register_dissector(ptr noundef nonnull @.str.100, ptr noundef nonnull @dissect_zvt, i32 noundef %34)
  %36 = load i32, ptr @proto_zvt, align 4
  %37 = tail call ptr @register_dissector(ptr noundef nonnull @.str.101, ptr noundef nonnull @dissect_zvt_tcp, i32 noundef %36)
  store ptr %37, ptr @zvt_tcp_handle, align 8
  tail call void @register_shutdown_routine(ptr noundef nonnull @zvt_shutdown)
  ret void
}